; Function Attrs: mustprogress uwtable
define void @_ZN2cv8ximgproc24fastGlobalSmootherFilterERKNS_11_InputArrayES3_RKNS_12_OutputArrayEdddi(ptr noundef nonnull align 8 dereferenceable(24) %0, ptr noundef nonnull align 8 dereferenceable(24) %1, ptr noundef nonnull align 8 dereferenceable(24) %2, double noundef %3, double noundef %4, double noundef %5, i32 noundef %6) local_unnamed_addr #3 personality ptr @__gxx_personality_v0 {
  %8 = alloca %"struct.cv::Ptr", align 8
  %9 = alloca %"struct.cv::Ptr.7", align 8
  call void @llvm.lifetime.start.p0(i64 16, ptr nonnull %9) #23
  tail call void @llvm.experimental.noalias.scope.decl(metadata !132)
  call void @llvm.lifetime.start.p0(i64 16, ptr nonnull %8) #23, !noalias !132
  call void @_ZN2cv8ximgproc28FastGlobalSmootherFilterImpl6createERKNS_11_InputArrayEddid(ptr dead_on_unwind nonnull writable sret(%"struct.cv::Ptr") align 8 %8, ptr noundef nonnull align 8 dereferenceable(24) %0, double noundef %3, double noundef %4, i32 noundef %6, double noundef %5), !noalias !132
  %10 = load ptr, ptr %8, align 8, !tbaa !77, !noalias !132
  store ptr %10, ptr %9, align 8, !tbaa !129, !alias.scope !132
  %11 = getelementptr inbounds nuw i8, ptr %9, i64 8
  %12 = getelementptr inbounds nuw i8, ptr %8, i64 8
  %13 = load ptr, ptr %12, align 8, !tbaa !81, !noalias !132
  store ptr %13, ptr %11, align 8, !tbaa !81, !alias.scope !132
  call void @llvm.lifetime.end.p0(i64 16, ptr nonnull %8) #23, !noalias !132
  %14 = load ptr, ptr %10, align 8, !tbaa !33
  %15 = getelementptr inbounds nuw i8, ptr %14, i64 64
  %16 = load ptr, ptr %15, align 8
  invoke void %16(ptr noundef nonnull align 8 dereferenceable(8) %10, ptr noundef nonnull align 8 dereferenceable(24) %1, ptr noundef nonnull align 8 dereferenceable(24) %2)
          to label %17 unwind label %39

17:                                               ; preds = %7
  %.not.i.i = icmp eq ptr %13, null
  br i1 %.not.i.i, label %_ZNSt12__shared_ptrIN2cv8ximgproc24FastGlobalSmootherFilterELN9__gnu_cxx12_Lock_policyE2EED2Ev.exit, label %18

18:                                               ; preds = %17
  %19 = getelementptr inbounds nuw i8, ptr %13, i64 8
  %20 = load atomic i64, ptr %19 acquire, align 8
  %21 = icmp eq i64 %20, 4294967297
  %22 = trunc i64 %20 to i32
  br i1 %21, label %23, label %31

23:                                               ; preds = %18
  store i32 0, ptr %19, align 8, !tbaa !82
  %24 = getelementptr inbounds nuw i8, ptr %13, i64 12
  store i32 0, ptr %24, align 4, !tbaa !84
  %25 = load ptr, ptr %13, align 8, !tbaa !33
  %26 = getelementptr inbounds nuw i8, ptr %25, i64 16
  %27 = load ptr, ptr %26, align 8
  tail call void %27(ptr noundef nonnull align 8 dereferenceable(16) %13) #23
  %28 = load ptr, ptr %13, align 8, !tbaa !33
  %29 = getelementptr inbounds nuw i8, ptr %28, i64 24
  %30 = load ptr, ptr %29, align 8
  tail call void %30(ptr noundef nonnull align 8 dereferenceable(16) %13) #23
  br label %_ZNSt12__shared_ptrIN2cv8ximgproc24FastGlobalSmootherFilterELN9__gnu_cxx12_Lock_policyE2EED2Ev.exit

31:                                               ; preds = %18
  %32 = load i8, ptr @__libc_single_threaded, align 1, !tbaa !135
  %.not.i.i.i = icmp eq i8 %32, 0
  br i1 %.not.i.i.i, label %35, label %33

33:                                               ; preds = %31
  %34 = add nsw i32 %22, -1
  store i32 %34, ptr %19, align 4, !tbaa !113
  br label %_ZN9__gnu_cxx27__exchange_and_add_dispatchEPii.exit.i.i.i

35:                                               ; preds = %31
  %36 = atomicrmw volatile add ptr %19, i32 -1 acq_rel, align 4
  br label %_ZN9__gnu_cxx27__exchange_and_add_dispatchEPii.exit.i.i.i

_ZN9__gnu_cxx27__exchange_and_add_dispatchEPii.exit.i.i.i: ; preds = %35, %33
  %.0.i.i.i.i = phi i32 [ %22, %33 ], [ %36, %35 ]
  %37 = icmp eq i32 %.0.i.i.i.i, 1
  br i1 %37, label %38, label %_ZNSt12__shared_ptrIN2cv8ximgproc24FastGlobalSmootherFilterELN9__gnu_cxx12_Lock_policyE2EED2Ev.exit, !prof !136

38:                                               ; preds = %_ZN9__gnu_cxx27__exchange_and_add_dispatchEPii.exit.i.i.i
  tail call void @_ZNSt16_Sp_counted_baseILN9__gnu_cxx12_Lock_policyE2EE24_M_release_last_use_coldEv(ptr noundef nonnull align 8 dereferenceable(16) %13) #23
  br label %_ZNSt12__shared_ptrIN2cv8ximgproc24FastGlobalSmootherFilterELN9__gnu_cxx12_Lock_policyE2EED2Ev.exit

_ZNSt12__shared_ptrIN2cv8ximgproc24FastGlobalSmootherFilterELN9__gnu_cxx12_Lock_policyE2EED2Ev.exit: ; preds = %17, %23, %_ZN9__gnu_cxx27__exchange_and_add_dispatchEPii.exit.i.i.i, %38
  call void @llvm.lifetime.end.p0(i64 16, ptr nonnull %9) #23
  ret void

39:                                               ; preds = %7
  %40 = landingpad { ptr, i32 }
          cleanup
  call void @_ZNSt12__shared_ptrIN2cv8ximgproc24FastGlobalSmootherFilterELN9__gnu_cxx12_Lock_policyE2EED2Ev(ptr noundef nonnull align 8 dereferenceable(16) %9) #23
  call void @llvm.lifetime.end.p0(i64 16, ptr nonnull %9) #23
  resume { ptr, i32 } %40
}